; Function Attrs: nounwind uwtable
define range(i32 0, 2) i32 @PKCS5_PBKDF2_HMAC_SHA1(ptr noundef %0, i32 noundef %1, ptr noundef %2, i32 noundef %3, i32 noundef %4, i32 noundef %5, ptr noundef %6) local_unnamed_addr #0 {
  %8 = tail call ptr @EVP_MD_fetch(ptr noundef null, ptr noundef nonnull @.str.7, ptr noundef null) #6
  %.not = icmp eq ptr %8, null
  br i1 %.not, label %11, label %9

9:                                                ; preds = %7
  %10 = tail call i32 @ossl_pkcs5_pbkdf2_hmac_ex(ptr noundef %0, i32 noundef %1, ptr noundef %2, i32 noundef %3, i32 noundef %4, ptr noundef nonnull %8, i32 noundef %5, ptr noundef %6, ptr noundef null, ptr noundef null)
  br label %11

11:                                               ; preds = %9, %7
  %.0 = phi i32 [ %10, %9 ], [ 0, %7 ]
  tail call void @EVP_MD_free(ptr noundef %8) #6
  ret i32 %.0
}